target datalayout = "e-m:e-p270:32:32-p271:32:32-p272:64:64-i64:64-i128:128-f80:128-n8:16:32:64-S128"
target triple = "x86_64-pc-linux-gnu"

%struct.AVFilterContext = type { ptr, ptr, ptr, ptr, ptr, i32, ptr, ptr, i32, ptr, ptr, i32, i32, ptr, ptr, ptr, ptr, i32, ptr, i32, i32 }
%struct.AudioFWTDNContext = type { ptr, double, double, double, i64, i64, i32, i32, i32, i32, i32, i32, i32, i32, i32, i32, i32, i32, i32, i32, ptr, ptr, ptr, ptr, ptr, ptr, ptr, ptr, ptr, ptr, ptr }

; Function Attrs: inlinehint nounwind uwtable
define internal void @ff_outlink_set_status(ptr noundef %0, i32 noundef %1, i64 noundef %2) #10 {
  %4 = alloca ptr, align 8
  %5 = alloca i32, align 4
  %6 = alloca i64, align 8
  store ptr %0, ptr %4, align 8, !tbaa !47
  store i32 %1, ptr %5, align 4, !tbaa !24
  store i64 %2, ptr %6, align 8, !tbaa !117
  %7 = load ptr, ptr %4, align 8, !tbaa !47
  %8 = load i32, ptr %5, align 4, !tbaa !24
  %9 = load i64, ptr %6, align 8, !tbaa !117
  call void @ff_avfilter_link_set_in_status(ptr noundef %7, i32 noundef %8, i64 noundef %9)
  ret void
}

; Function Attrs: nounwind uwtable
define internal i32 @activate(ptr noundef %0) #1 {
  %2 = alloca i32, align 4
  %3 = alloca ptr, align 8
  %4 = alloca ptr, align 8
  %5 = alloca ptr, align 8
  %6 = alloca ptr, align 8
  %7 = alloca ptr, align 8
  %8 = alloca i32, align 4
  %9 = alloca i32, align 4
  %10 = alloca i64, align 8
  %11 = alloca i32, align 4
  %12 = alloca i32, align 4
  store ptr %0, ptr %3, align 8, !tbaa !4
  call void @llvm.lifetime.start.p0(i64 8, ptr %4) #12
  %13 = load ptr, ptr %3, align 8, !tbaa !4
  %14 = getelementptr inbounds nuw %struct.AVFilterContext, ptr %13, i32 0, i32 4
  %15 = load ptr, ptr %14, align 8, !tbaa !46
  %16 = getelementptr inbounds ptr, ptr %15, i64 0
  %17 = load ptr, ptr %16, align 8, !tbaa !47
  store ptr %17, ptr %4, align 8, !tbaa !47
  call void @llvm.lifetime.start.p0(i64 8, ptr %5) #12
  %18 = load ptr, ptr %3, align 8, !tbaa !4
  %19 = getelementptr inbounds nuw %struct.AVFilterContext, ptr %18, i32 0, i32 7
  %20 = load ptr, ptr %19, align 8, !tbaa !49
  %21 = getelementptr inbounds ptr, ptr %20, i64 0
  %22 = load ptr, ptr %21, align 8, !tbaa !47
  store ptr %22, ptr %5, align 8, !tbaa !47
  call void @llvm.lifetime.start.p0(i64 8, ptr %6) #12
  %23 = load ptr, ptr %3, align 8, !tbaa !4
  %24 = getelementptr inbounds nuw %struct.AVFilterContext, ptr %23, i32 0, i32 9
  %25 = load ptr, ptr %24, align 8, !tbaa !9
  store ptr %25, ptr %6, align 8, !tbaa !22
  call void @llvm.lifetime.start.p0(i64 8, ptr %7) #12
  store ptr null, ptr %7, align 8, !tbaa !50
  call void @llvm.lifetime.start.p0(i64 4, ptr %8) #12
  call void @llvm.lifetime.start.p0(i64 4, ptr %9) #12
  call void @llvm.lifetime.start.p0(i64 8, ptr %10) #12
  br label %26

26:                                               ; preds = %1
  call void @llvm.lifetime.start.p0(i64 4, ptr %11) #12
  %27 = load ptr, ptr %5, align 8, !tbaa !47
  %28 = call i32 @ff_outlink_get_status(ptr noundef %27)
  store i32 %28, ptr %11, align 4, !tbaa !24
  %29 = load i32, ptr %11, align 4, !tbaa !24
  %30 = icmp ne i32 %29, 0
  br i1 %30, label %31, label %34

31:                                               ; preds = %26
  %32 = load ptr, ptr %4, align 8, !tbaa !47
  %33 = load i32, ptr %11, align 4, !tbaa !24
  call void @ff_inlink_set_status(ptr noundef %32, i32 noundef %33)
  store i32 0, ptr %2, align 4
  store i32 1, ptr %12, align 4
  br label %35

34:                                               ; preds = %26
  store i32 0, ptr %12, align 4
  br label %35

35:                                               ; preds = %34, %31
  call void @llvm.lifetime.end.p0(i64 4, ptr %11) #12
  %36 = load i32, ptr %12, align 4
  switch i32 %36, label %110 [
    i32 0, label %37
  ]

37:                                               ; preds = %35
  br label %38

38:                                               ; preds = %37
  br label %39

39:                                               ; preds = %38
  %40 = load ptr, ptr %6, align 8, !tbaa !22
  %41 = getelementptr inbounds nuw %struct.AudioFWTDNContext, ptr %40, i32 0, i32 6
  %42 = load i32, ptr %41, align 8, !tbaa !51
  %43 = icmp ne i32 %42, 0
  br i1 %43, label %65, label %44

44:                                               ; preds = %39
  %45 = load ptr, ptr %4, align 8, !tbaa !47
  %46 = load ptr, ptr %6, align 8, !tbaa !22
  %47 = getelementptr inbounds nuw %struct.AudioFWTDNContext, ptr %46, i32 0, i32 9
  %48 = load i32, ptr %47, align 4, !tbaa !52
  %49 = load ptr, ptr %6, align 8, !tbaa !22
  %50 = getelementptr inbounds nuw %struct.AudioFWTDNContext, ptr %49, i32 0, i32 9
  %51 = load i32, ptr %50, align 4, !tbaa !52
  %52 = call i32 @ff_inlink_consume_samples(ptr noundef %45, i32 noundef %48, i32 noundef %51, ptr noundef %7)
  store i32 %52, ptr %8, align 4, !tbaa !24
  %53 = load i32, ptr %8, align 4, !tbaa !24
  %54 = icmp slt i32 %53, 0
  br i1 %54, label %55, label %57

55:                                               ; preds = %44
  %56 = load i32, ptr %8, align 4, !tbaa !24
  store i32 %56, ptr %2, align 4
  store i32 1, ptr %12, align 4
  br label %110

57:                                               ; preds = %44
  %58 = load i32, ptr %8, align 4, !tbaa !24
  %59 = icmp sgt i32 %58, 0
  br i1 %59, label %60, label %64

60:                                               ; preds = %57
  %61 = load ptr, ptr %4, align 8, !tbaa !47
  %62 = load ptr, ptr %7, align 8, !tbaa !50
  %63 = call i32 @filter_frame(ptr noundef %61, ptr noundef %62)
  store i32 %63, ptr %2, align 4
  store i32 1, ptr %12, align 4
  br label %110

64:                                               ; preds = %57
  br label %65

65:                                               ; preds = %64, %39
  %66 = load ptr, ptr %4, align 8, !tbaa !47
  %67 = call i32 @ff_inlink_acknowledge_status(ptr noundef %66, ptr noundef %9, ptr noundef %10)
  %68 = icmp ne i32 %67, 0
  br i1 %68, label %69, label %76

69:                                               ; preds = %65
  %70 = load i32, ptr %9, align 4, !tbaa !24
  %71 = icmp eq i32 %70, -541478725
  br i1 %71, label %72, label %75

72:                                               ; preds = %69
  %73 = load ptr, ptr %6, align 8, !tbaa !22
  %74 = getelementptr inbounds nuw %struct.AudioFWTDNContext, ptr %73, i32 0, i32 6
  store i32 1, ptr %74, align 8, !tbaa !51
  br label %75

75:                                               ; preds = %72, %69
  br label %76

76:                                               ; preds = %75, %65
  %77 = load ptr, ptr %6, align 8, !tbaa !22
  %78 = getelementptr inbounds nuw %struct.AudioFWTDNContext, ptr %77, i32 0, i32 6
  %79 = load i32, ptr %78, align 8, !tbaa !51
  %80 = icmp ne i32 %79, 0
  br i1 %80, label %81, label %89

81:                                               ; preds = %76
  %82 = load ptr, ptr %6, align 8, !tbaa !22
  %83 = getelementptr inbounds nuw %struct.AudioFWTDNContext, ptr %82, i32 0, i32 17
  %84 = load i32, ptr %83, align 4, !tbaa !53
  %85 = icmp ne i32 %84, 0
  br i1 %85, label %86, label %89

86:                                               ; preds = %81
  %87 = load ptr, ptr %4, align 8, !tbaa !47
  %88 = call i32 @filter_frame(ptr noundef %87, ptr noundef null)
  store i32 %88, ptr %2, align 4
  store i32 1, ptr %12, align 4
  br label %110

89:                                               ; preds = %81, %76
  %90 = load ptr, ptr %6, align 8, !tbaa !22
  %91 = getelementptr inbounds nuw %struct.AudioFWTDNContext, ptr %90, i32 0, i32 6
  %92 = load i32, ptr %91, align 8, !tbaa !51
  %93 = icmp ne i32 %92, 0
  br i1 %93, label %94, label %99

94:                                               ; preds = %89
  %95 = load ptr, ptr %5, align 8, !tbaa !47
  %96 = load ptr, ptr %6, align 8, !tbaa !22
  %97 = getelementptr inbounds nuw %struct.AudioFWTDNContext, ptr %96, i32 0, i32 5
  %98 = load i64, ptr %97, align 8, !tbaa !54
  call void @ff_outlink_set_status(ptr noundef %95, i32 noundef -541478725, i64 noundef %98)
  store i32 0, ptr %2, align 4
  store i32 1, ptr %12, align 4
  br label %110

99:                                               ; preds = %89
  br label %100

100:                                              ; preds = %99
  br label %101

101:                                              ; preds = %100
  %102 = load ptr, ptr %5, align 8, !tbaa !47
  %103 = call i32 @ff_outlink_frame_wanted(ptr noundef %102)
  %104 = icmp ne i32 %103, 0
  br i1 %104, label %105, label %107

105:                                              ; preds = %101
  %106 = load ptr, ptr %4, align 8, !tbaa !47
  call void @ff_inlink_request_frame(ptr noundef %106)
  store i32 0, ptr %2, align 4
  store i32 1, ptr %12, align 4
  br label %110

107:                                              ; preds = %101
  br label %108

108:                                              ; preds = %107
  br label %109

109:                                              ; preds = %108
  store i32 -1497649742, ptr %2, align 4
  store i32 1, ptr %12, align 4
  br label %110

110:                                              ; preds = %109, %105, %94, %86, %60, %55, %35
  call void @llvm.lifetime.end.p0(i64 8, ptr %10) #12
  call void @llvm.lifetime.end.p0(i64 4, ptr %9) #12
  call void @llvm.lifetime.end.p0(i64 4, ptr %8) #12
  call void @llvm.lifetime.end.p0(i64 8, ptr %7) #12
  call void @llvm.lifetime.end.p0(i64 8, ptr %6) #12
  call void @llvm.lifetime.end.p0(i64 8, ptr %5) #12
  call void @llvm.lifetime.end.p0(i64 8, ptr %4) #12
  %111 = load i32, ptr %2, align 4
  ret i32 %111
}