; Function Attrs: nounwind uwtable
define internal i32 @activate(ptr noundef readonly captures(none) %0) #1 {
  %2 = alloca ptr, align 8
  %3 = alloca i32, align 4
  %4 = alloca i64, align 8
  %5 = getelementptr inbounds nuw i8, ptr %0, i64 32
  %6 = load ptr, ptr %5, align 8, !tbaa !39
  %7 = load ptr, ptr %6, align 8, !tbaa !40
  %8 = getelementptr inbounds nuw i8, ptr %0, i64 56
  %9 = load ptr, ptr %8, align 8, !tbaa !42
  %10 = load ptr, ptr %9, align 8, !tbaa !40
  %11 = getelementptr inbounds nuw i8, ptr %0, i64 72
  %12 = load ptr, ptr %11, align 8, !tbaa !4
  call void @llvm.lifetime.start.p0(i64 8, ptr nonnull %2) #12
  store ptr null, ptr %2, align 8, !tbaa !43
  call void @llvm.lifetime.start.p0(i64 4, ptr nonnull %3) #12
  call void @llvm.lifetime.start.p0(i64 8, ptr nonnull %4) #12
  %13 = tail call i32 @ff_outlink_get_status(ptr noundef %10) #12
  %.not = icmp eq i32 %13, 0
  br i1 %.not, label %.critedge, label %14

14:                                               ; preds = %1
  tail call void @ff_inlink_set_status(ptr noundef %7, i32 noundef %13) #12
  br label %43

.critedge:                                        ; preds = %1
  %15 = getelementptr inbounds nuw i8, ptr %12, i64 48
  %16 = load i32, ptr %15, align 8, !tbaa !44
  %.not31 = icmp eq i32 %16, 0
  br i1 %.not31, label %17, label %26

17:                                               ; preds = %.critedge
  %18 = getelementptr inbounds nuw i8, ptr %12, i64 60
  %19 = load i32, ptr %18, align 4, !tbaa !45
  %20 = call i32 @ff_inlink_consume_samples(ptr noundef %7, i32 noundef %19, i32 noundef %19, ptr noundef nonnull %2) #12
  %21 = icmp slt i32 %20, 0
  br i1 %21, label %43, label %22

22:                                               ; preds = %17
  %.not32 = icmp eq i32 %20, 0
  br i1 %.not32, label %26, label %23

23:                                               ; preds = %22
  %24 = load ptr, ptr %2, align 8, !tbaa !43
  %25 = call fastcc i32 @filter_frame(ptr noundef %7, ptr noundef %24)
  br label %43

26:                                               ; preds = %22, %.critedge
  %27 = call i32 @ff_inlink_acknowledge_status(ptr noundef %7, ptr noundef nonnull %3, ptr noundef nonnull %4) #12
  %28 = icmp ne i32 %27, 0
  %29 = load i32, ptr %3, align 4
  %30 = icmp eq i32 %29, -541478725
  %or.cond = select i1 %28, i1 %30, i1 false
  br i1 %or.cond, label %.thread, label %31

.thread:                                          ; preds = %26
  store i32 1, ptr %15, align 8, !tbaa !44
  br label %32

31:                                               ; preds = %26
  %.pr = load i32, ptr %15, align 8, !tbaa !44
  %.not33 = icmp eq i32 %.pr, 0
  br i1 %.not33, label %40, label %32

32:                                               ; preds = %.thread, %31
  %33 = getelementptr inbounds nuw i8, ptr %12, i64 92
  %34 = load i32, ptr %33, align 4, !tbaa !46
  %.not34 = icmp eq i32 %34, 0
  br i1 %.not34, label %37, label %35

35:                                               ; preds = %32
  %36 = call fastcc i32 @filter_frame(ptr noundef %7, ptr noundef null)
  br label %43

37:                                               ; preds = %32
  %38 = getelementptr inbounds nuw i8, ptr %12, i64 40
  %39 = load i64, ptr %38, align 8, !tbaa !47
  call void @ff_avfilter_link_set_in_status(ptr noundef %10, i32 noundef -541478725, i64 noundef %39) #12
  br label %43

40:                                               ; preds = %31
  %41 = call i32 @ff_outlink_frame_wanted(ptr noundef %10) #12
  %.not36 = icmp eq i32 %41, 0
  br i1 %.not36, label %43, label %42

42:                                               ; preds = %40
  call void @ff_inlink_request_frame(ptr noundef %7) #12
  br label %43

43:                                               ; preds = %14, %40, %17, %42, %37, %35, %23
  %.1 = phi i32 [ %36, %35 ], [ 0, %37 ], [ 0, %42 ], [ %25, %23 ], [ 0, %14 ], [ %20, %17 ], [ -1497649742, %40 ]
  call void @llvm.lifetime.end.p0(i64 8, ptr nonnull %4) #12
  call void @llvm.lifetime.end.p0(i64 4, ptr nonnull %3) #12
  call void @llvm.lifetime.end.p0(i64 8, ptr nonnull %2) #12
  ret i32 %.1
}